; Function Attrs: mustprogress uwtable
define dso_local noundef i32 @_Z15luaL_optbooleanP9lua_Stateii(ptr noundef %0, i32 noundef %1, i32 noundef %2) local_unnamed_addr #2 {
  %4 = tail call noundef i32 @_Z8lua_typeP9lua_Statei(ptr noundef %0, i32 noundef %1)
  %5 = icmp slt i32 %4, 1
  br i1 %5, label %11, label %6

6:                                                ; preds = %3
  %7 = tail call noundef i32 @_Z8lua_typeP9lua_Statei(ptr noundef %0, i32 noundef %1)
  %8 = icmp eq i32 %7, 1
  br i1 %8, label %_Z17luaL_checkbooleanP9lua_Statei.exit, label %9

9:                                                ; preds = %6
  tail call fastcc void @_ZL9tag_errorP9lua_Stateii(ptr noundef %0, i32 noundef %1, i32 noundef 1) #11
  unreachable

_Z17luaL_checkbooleanP9lua_Statei.exit:           ; preds = %6
  %10 = tail call noundef i32 @_Z13lua_tobooleanP9lua_Statei(ptr noundef %0, i32 noundef %1)
  br label %11

11:                                               ; preds = %3, %_Z17luaL_checkbooleanP9lua_Statei.exit
  %12 = phi i32 [ %10, %_Z17luaL_checkbooleanP9lua_Statei.exit ], [ %2, %3 ]
  ret i32 %12
}